; Function Attrs: mustprogress uwtable
define noundef i32 @_Z12read_tpx_topRKNSt10filesystem7__cxx114pathEP10t_inputrecPA3_fPiS7_S7_P10t_topology(ptr noundef nonnull align 8 dereferenceable(40) %0, ptr noundef %1, ptr noundef %2, ptr noundef %3, ptr noundef %4, ptr noundef %5, ptr nocapture noundef writeonly %6) local_unnamed_addr #5 personality ptr @__gxx_personality_v0 {
  %8 = alloca %struct.gmx_mtop_t, align 8
  %9 = alloca %struct.t_topology, align 8
  call void @_ZN10gmx_mtop_tC1Ev(ptr noundef nonnull align 8 dereferenceable(768) %8)
  %10 = invoke noundef i32 @_Z8read_tpxRKNSt10filesystem7__cxx114pathEP10t_inputrecPA3_fPiS7_S7_P10gmx_mtop_t(ptr noundef nonnull align 8 dereferenceable(40) %0, ptr noundef %1, ptr noundef %2, ptr noundef %3, ptr noundef %4, ptr noundef %5, ptr noundef nonnull %8)
          to label %11 unwind label %13

11:                                               ; preds = %7
  invoke void @_Z24gmx_mtop_t_to_t_topologyP10gmx_mtop_tb(ptr dead_on_unwind nonnull writable sret(%struct.t_topology) align 8 %9, ptr noundef nonnull %8, i1 noundef zeroext true)
          to label %12 unwind label %13

12:                                               ; preds = %11
  call void @llvm.memcpy.p0.p0.i64(ptr noundef nonnull align 8 dereferenceable(2440) %6, ptr noundef nonnull align 8 dereferenceable(2440) %9, i64 2440, i1 false)
  call void @_ZN10gmx_mtop_tD1Ev(ptr noundef nonnull align 8 dereferenceable(768) %8) #22
  ret i32 %10

13:                                               ; preds = %11, %7
  %14 = landingpad { ptr, i32 }
          cleanup
  call void @_ZN10gmx_mtop_tD1Ev(ptr noundef nonnull align 8 dereferenceable(768) %8) #22
  resume { ptr, i32 } %14
}